target datalayout = "e-m:e-p270:32:32-p271:32:32-p272:64:64-i64:64-i128:128-f80:128-n8:16:32:64-S128"
target triple = "x86_64-pc-linux-gnu"

%struct.unaligned.1 = type { i32 }
%struct.unaligned.2 = type { i16 }
%struct.unaligned.4 = type { i64 }

; Function Attrs: alwaysinline nounwind uwtable
define internal i64 @_pdep_u64(i64 noundef %0, i64 noundef %1) #2 {
  %3 = alloca i64, align 8
  %4 = alloca i64, align 8
  store i64 %0, ptr %3, align 8
  store i64 %1, ptr %4, align 8
  %5 = load i64, ptr %3, align 8
  %6 = load i64, ptr %4, align 8
  %7 = call i64 @llvm.x86.bmi.pdep.64(i64 %5, i64 %6)
  ret i64 %7
}

; Function Attrs: alwaysinline nounwind uwtable
define internal zeroext i16 @unaligned_load_u16(ptr noundef %0) #2 {
  %2 = alloca ptr, align 8
  %3 = alloca ptr, align 8
  store ptr %0, ptr %2, align 8
  call void @llvm.lifetime.start.p0(i64 8, ptr %3) #10
  %4 = load ptr, ptr %2, align 8
  store ptr %4, ptr %3, align 8
  %5 = load ptr, ptr %3, align 8
  %6 = getelementptr inbounds nuw %struct.unaligned.2, ptr %5, i32 0, i32 0
  %7 = load i16, ptr %6, align 1
  call void @llvm.lifetime.end.p0(i64 8, ptr %3) #10
  ret i16 %7
}

; Function Attrs: alwaysinline nounwind uwtable
define internal i32 @unaligned_load_u32(ptr noundef %0) #2 {
  %2 = alloca ptr, align 8
  %3 = alloca ptr, align 8
  store ptr %0, ptr %2, align 8
  call void @llvm.lifetime.start.p0(i64 8, ptr %3) #10
  %4 = load ptr, ptr %2, align 8
  store ptr %4, ptr %3, align 8
  %5 = load ptr, ptr %3, align 8
  %6 = getelementptr inbounds nuw %struct.unaligned.1, ptr %5, i32 0, i32 0
  %7 = load i32, ptr %6, align 1
  call void @llvm.lifetime.end.p0(i64 8, ptr %3) #10
  ret i32 %7
}

; Function Attrs: alwaysinline nounwind uwtable
define internal i64 @unaligned_load_u64a(ptr noundef %0) #2 {
  %2 = alloca ptr, align 8
  %3 = alloca ptr, align 8
  store ptr %0, ptr %2, align 8
  call void @llvm.lifetime.start.p0(i64 8, ptr %3) #10
  %4 = load ptr, ptr %2, align 8
  store ptr %4, ptr %3, align 8
  %5 = load ptr, ptr %3, align 8
  %6 = getelementptr inbounds nuw %struct.unaligned.4, ptr %5, i32 0, i32 0
  %7 = load i64, ptr %6, align 1
  call void @llvm.lifetime.end.p0(i64 8, ptr %3) #10
  ret i64 %7
}

; Function Attrs: alwaysinline nounwind uwtable
define internal i64 @expand64(i64 noundef %0, i64 noundef %1) #2 {
  %3 = alloca i64, align 8
  %4 = alloca i64, align 8
  store i64 %0, ptr %3, align 8
  store i64 %1, ptr %4, align 8
  %5 = load i64, ptr %3, align 8
  %6 = load i64, ptr %4, align 8
  %7 = call i64 @_pdep_u64(i64 noundef %5, i64 noundef %6)
  ret i64 %7
}

; Function Attrs: alwaysinline nounwind uwtable
define internal i64 @partial_load_u64a(ptr noundef %0, i32 noundef %1) #2 {
  %3 = alloca i64, align 8
  %4 = alloca ptr, align 8
  %5 = alloca i32, align 4
  %6 = alloca i64, align 8
  %7 = alloca i32, align 4
  store ptr %0, ptr %4, align 8
  store i32 %1, ptr %5, align 4
  call void @llvm.lifetime.start.p0(i64 8, ptr %6) #10
  %8 = load i32, ptr %5, align 4
  switch i32 %8, label %83 [
    i32 8, label %9
    i32 7, label %13
    i32 6, label %32
    i32 5, label %44
    i32 4, label %56
    i32 3, label %61
    i32 2, label %73
    i32 1, label %78
    i32 0, label %83
  ]

9:                                                ; preds = %2
  %10 = load ptr, ptr %4, align 8
  %11 = call i64 @unaligned_load_u64a(ptr noundef %10)
  store i64 %11, ptr %6, align 8
  %12 = load i64, ptr %6, align 8
  store i64 %12, ptr %3, align 8
  store i32 1, ptr %7, align 4
  br label %84

13:                                               ; preds = %2
  %14 = load ptr, ptr %4, align 8
  %15 = call i32 @unaligned_load_u32(ptr noundef %14)
  %16 = zext i32 %15 to i64
  store i64 %16, ptr %6, align 8
  %17 = load ptr, ptr %4, align 8
  %18 = getelementptr inbounds i8, ptr %17, i64 4
  %19 = call zeroext i16 @unaligned_load_u16(ptr noundef %18)
  %20 = zext i16 %19 to i64
  %21 = shl i64 %20, 32
  %22 = load i64, ptr %6, align 8
  %23 = or i64 %22, %21
  store i64 %23, ptr %6, align 8
  %24 = load ptr, ptr %4, align 8
  %25 = getelementptr inbounds i8, ptr %24, i64 6
  %26 = load i8, ptr %25, align 1
  %27 = zext i8 %26 to i64
  %28 = shl i64 %27, 48
  %29 = load i64, ptr %6, align 8
  %30 = or i64 %29, %28
  store i64 %30, ptr %6, align 8
  %31 = load i64, ptr %6, align 8
  store i64 %31, ptr %3, align 8
  store i32 1, ptr %7, align 4
  br label %84

32:                                               ; preds = %2
  %33 = load ptr, ptr %4, align 8
  %34 = call i32 @unaligned_load_u32(ptr noundef %33)
  %35 = zext i32 %34 to i64
  store i64 %35, ptr %6, align 8
  %36 = load ptr, ptr %4, align 8
  %37 = getelementptr inbounds i8, ptr %36, i64 4
  %38 = call zeroext i16 @unaligned_load_u16(ptr noundef %37)
  %39 = zext i16 %38 to i64
  %40 = shl i64 %39, 32
  %41 = load i64, ptr %6, align 8
  %42 = or i64 %41, %40
  store i64 %42, ptr %6, align 8
  %43 = load i64, ptr %6, align 8
  store i64 %43, ptr %3, align 8
  store i32 1, ptr %7, align 4
  br label %84

44:                                               ; preds = %2
  %45 = load ptr, ptr %4, align 8
  %46 = call i32 @unaligned_load_u32(ptr noundef %45)
  %47 = zext i32 %46 to i64
  store i64 %47, ptr %6, align 8
  %48 = load ptr, ptr %4, align 8
  %49 = getelementptr inbounds i8, ptr %48, i64 4
  %50 = load i8, ptr %49, align 1
  %51 = zext i8 %50 to i64
  %52 = shl i64 %51, 32
  %53 = load i64, ptr %6, align 8
  %54 = or i64 %53, %52
  store i64 %54, ptr %6, align 8
  %55 = load i64, ptr %6, align 8
  store i64 %55, ptr %3, align 8
  store i32 1, ptr %7, align 4
  br label %84

56:                                               ; preds = %2
  %57 = load ptr, ptr %4, align 8
  %58 = call i32 @unaligned_load_u32(ptr noundef %57)
  %59 = zext i32 %58 to i64
  store i64 %59, ptr %6, align 8
  %60 = load i64, ptr %6, align 8
  store i64 %60, ptr %3, align 8
  store i32 1, ptr %7, align 4
  br label %84

61:                                               ; preds = %2
  %62 = load ptr, ptr %4, align 8
  %63 = call zeroext i16 @unaligned_load_u16(ptr noundef %62)
  %64 = zext i16 %63 to i64
  store i64 %64, ptr %6, align 8
  %65 = load ptr, ptr %4, align 8
  %66 = getelementptr inbounds i8, ptr %65, i64 2
  %67 = load i8, ptr %66, align 1
  %68 = zext i8 %67 to i64
  %69 = shl i64 %68, 16
  %70 = load i64, ptr %6, align 8
  %71 = or i64 %70, %69
  store i64 %71, ptr %6, align 8
  %72 = load i64, ptr %6, align 8
  store i64 %72, ptr %3, align 8
  store i32 1, ptr %7, align 4
  br label %84

73:                                               ; preds = %2
  %74 = load ptr, ptr %4, align 8
  %75 = call zeroext i16 @unaligned_load_u16(ptr noundef %74)
  %76 = zext i16 %75 to i64
  store i64 %76, ptr %6, align 8
  %77 = load i64, ptr %6, align 8
  store i64 %77, ptr %3, align 8
  store i32 1, ptr %7, align 4
  br label %84

78:                                               ; preds = %2
  %79 = load ptr, ptr %4, align 8
  %80 = load i8, ptr %79, align 1
  %81 = zext i8 %80 to i64
  store i64 %81, ptr %6, align 8
  %82 = load i64, ptr %6, align 8
  store i64 %82, ptr %3, align 8
  store i32 1, ptr %7, align 4
  br label %84

83:                                               ; preds = %2, %2
  store i64 0, ptr %3, align 8
  store i32 1, ptr %7, align 4
  br label %84

84:                                               ; preds = %83, %78, %73, %61, %56, %44, %32, %13, %9
  call void @llvm.lifetime.end.p0(i64 8, ptr %6) #10
  %85 = load i64, ptr %3, align 8
  ret i64 %85
}

; Function Attrs: nounwind uwtable
define hidden void @loadcompressed64(ptr noundef %0, ptr noundef %1, ptr noundef %2, i32 noundef %3) #0 {
  %5 = alloca ptr, align 8
  %6 = alloca ptr, align 8
  %7 = alloca ptr, align 8
  %8 = alloca i32, align 4
  %9 = alloca i64, align 8
  store ptr %0, ptr %5, align 8
  store ptr %1, ptr %6, align 8
  store ptr %2, ptr %7, align 8
  store i32 %3, ptr %8, align 4
  call void @llvm.lifetime.start.p0(i64 8, ptr %9) #10
  %10 = load ptr, ptr %6, align 8
  %11 = load i32, ptr %8, align 4
  %12 = call i64 @partial_load_u64a(ptr noundef %10, i32 noundef %11)
  store i64 %12, ptr %9, align 8
  %13 = load i64, ptr %9, align 8
  %14 = load ptr, ptr %7, align 8
  %15 = load i64, ptr %14, align 8
  %16 = call i64 @expand64(i64 noundef %13, i64 noundef %15)
  %17 = load ptr, ptr %5, align 8
  store i64 %16, ptr %17, align 8
  call void @llvm.lifetime.end.p0(i64 8, ptr %9) #10
  ret void
}