; Function Attrs: mustprogress nofree norecurse nosync nounwind willreturn memory(argmem: readwrite) uwtable
define hidden void @loadcompressed64(ptr noundef writeonly captures(none) initializes((0, 8)) %0, ptr noundef readonly captures(none) %1, ptr noundef readonly captures(none) %2, i32 noundef %3) local_unnamed_addr #0 {
  switch i32 %3, label %partial_load_u64a.exit [
    i32 8, label %5
    i32 7, label %7
    i32 6, label %20
    i32 5, label %28
    i32 4, label %36
    i32 3, label %39
    i32 2, label %47
    i32 1, label %50
  ]

5:                                                ; preds = %4
  %6 = load i64, ptr %1, align 1
  br label %partial_load_u64a.exit

7:                                                ; preds = %4
  %8 = load i32, ptr %1, align 1
  %9 = zext i32 %8 to i64
  %10 = getelementptr inbounds nuw i8, ptr %1, i64 4
  %11 = load i16, ptr %10, align 1
  %12 = zext i16 %11 to i64
  %13 = shl nuw nsw i64 %12, 32
  %14 = or disjoint i64 %13, %9
  %15 = getelementptr inbounds nuw i8, ptr %1, i64 6
  %16 = load i8, ptr %15, align 1
  %17 = zext i8 %16 to i64
  %18 = shl nuw nsw i64 %17, 48
  %19 = or disjoint i64 %14, %18
  br label %partial_load_u64a.exit

20:                                               ; preds = %4
  %21 = load i32, ptr %1, align 1
  %22 = zext i32 %21 to i64
  %23 = getelementptr inbounds nuw i8, ptr %1, i64 4
  %24 = load i16, ptr %23, align 1
  %25 = zext i16 %24 to i64
  %26 = shl nuw nsw i64 %25, 32
  %27 = or disjoint i64 %26, %22
  br label %partial_load_u64a.exit

28:                                               ; preds = %4
  %29 = load i32, ptr %1, align 1
  %30 = zext i32 %29 to i64
  %31 = getelementptr inbounds nuw i8, ptr %1, i64 4
  %32 = load i8, ptr %31, align 1
  %33 = zext i8 %32 to i64
  %34 = shl nuw nsw i64 %33, 32
  %35 = or disjoint i64 %34, %30
  br label %partial_load_u64a.exit

36:                                               ; preds = %4
  %37 = load i32, ptr %1, align 1
  %38 = zext i32 %37 to i64
  br label %partial_load_u64a.exit

39:                                               ; preds = %4
  %40 = load i16, ptr %1, align 1
  %41 = zext i16 %40 to i64
  %42 = getelementptr inbounds nuw i8, ptr %1, i64 2
  %43 = load i8, ptr %42, align 1
  %44 = zext i8 %43 to i64
  %45 = shl nuw nsw i64 %44, 16
  %46 = or disjoint i64 %45, %41
  br label %partial_load_u64a.exit

47:                                               ; preds = %4
  %48 = load i16, ptr %1, align 1
  %49 = zext i16 %48 to i64
  br label %partial_load_u64a.exit

50:                                               ; preds = %4
  %51 = load i8, ptr %1, align 1
  %52 = zext i8 %51 to i64
  br label %partial_load_u64a.exit

partial_load_u64a.exit:                           ; preds = %4, %5, %7, %20, %28, %36, %39, %47, %50
  %.0.i = phi i64 [ %52, %50 ], [ %49, %47 ], [ %46, %39 ], [ %38, %36 ], [ %35, %28 ], [ %27, %20 ], [ %19, %7 ], [ %6, %5 ], [ 0, %4 ]
  %53 = load i64, ptr %2, align 8
  %54 = tail call i64 @llvm.x86.bmi.pdep.64(i64 %.0.i, i64 %53)
  store i64 %54, ptr %0, align 8
  ret void
}